target datalayout = "e-m:e-p270:32:32-p271:32:32-p272:64:64-i64:64-i128:128-f80:128-n8:16:32:64-S128"
target triple = "x86_64-pc-linux-gnu"

%struct.ForEachState = type { ptr, i32 }
%struct.List = type { i32, i32, i32, ptr, [0 x %union.ListCell] }
%union.ListCell = type { ptr }
%struct.Node = type { i32 }
%struct.NamedArgExpr = type { %struct.Expr, ptr, ptr, i32, i32 }
%struct.Expr = type { i32 }

; Function Attrs: nounwind uwtable
define dso_local void @make_fn_arguments(ptr noundef %0, ptr noundef %1, ptr noundef %2, ptr noundef %3) #0 {
  %5 = alloca ptr, align 8
  %6 = alloca ptr, align 8
  %7 = alloca ptr, align 8
  %8 = alloca ptr, align 8
  %9 = alloca ptr, align 8
  %10 = alloca i32, align 4
  %11 = alloca %struct.ForEachState, align 8
  %12 = alloca ptr, align 8
  %13 = alloca ptr, align 8
  store ptr %0, ptr %5, align 8
  store ptr %1, ptr %6, align 8
  store ptr %2, ptr %7, align 8
  store ptr %3, ptr %8, align 8
  call void @llvm.lifetime.start.p0(i64 8, ptr %9) #7
  call void @llvm.lifetime.start.p0(i64 4, ptr %10) #7
  store i32 0, ptr %10, align 4
  call void @llvm.lifetime.start.p0(i64 16, ptr %11) #7
  %14 = getelementptr inbounds nuw %struct.ForEachState, ptr %11, i32 0, i32 0
  %15 = load ptr, ptr %6, align 8
  store ptr %15, ptr %14, align 8
  %16 = getelementptr inbounds nuw %struct.ForEachState, ptr %11, i32 0, i32 1
  store i32 0, ptr %16, align 8
  %17 = getelementptr i8, ptr %11, i64 12
  call void @llvm.memset.p0.i64(ptr align 4 %17, i8 0, i64 4, i1 false)
  br label %18

18:                                               ; preds = %103, %4
  %19 = getelementptr inbounds nuw %struct.ForEachState, ptr %11, i32 0, i32 0
  %20 = load ptr, ptr %19, align 8
  %21 = icmp ne ptr %20, null
  br i1 %21, label %22, label %39

22:                                               ; preds = %18
  %23 = getelementptr inbounds nuw %struct.ForEachState, ptr %11, i32 0, i32 1
  %24 = load i32, ptr %23, align 8
  %25 = getelementptr inbounds nuw %struct.ForEachState, ptr %11, i32 0, i32 0
  %26 = load ptr, ptr %25, align 8
  %27 = getelementptr inbounds nuw %struct.List, ptr %26, i32 0, i32 1
  %28 = load i32, ptr %27, align 4
  %29 = icmp slt i32 %24, %28
  br i1 %29, label %30, label %39

30:                                               ; preds = %22
  %31 = getelementptr inbounds nuw %struct.ForEachState, ptr %11, i32 0, i32 0
  %32 = load ptr, ptr %31, align 8
  %33 = getelementptr inbounds nuw %struct.List, ptr %32, i32 0, i32 3
  %34 = load ptr, ptr %33, align 8
  %35 = getelementptr inbounds nuw %struct.ForEachState, ptr %11, i32 0, i32 1
  %36 = load i32, ptr %35, align 8
  %37 = sext i32 %36 to i64
  %38 = getelementptr inbounds %union.ListCell, ptr %34, i64 %37
  store ptr %38, ptr %9, align 8
  br label %40

39:                                               ; preds = %22, %18
  store ptr null, ptr %9, align 8
  br label %40

40:                                               ; preds = %39, %30
  %41 = phi i32 [ 1, %30 ], [ 0, %39 ]
  %42 = icmp ne i32 %41, 0
  br i1 %42, label %44, label %43

43:                                               ; preds = %40
  call void @llvm.lifetime.end.p0(i64 16, ptr %11) #7
  br label %107

44:                                               ; preds = %40
  %45 = load ptr, ptr %7, align 8
  %46 = load i32, ptr %10, align 4
  %47 = sext i32 %46 to i64
  %48 = getelementptr inbounds i32, ptr %45, i64 %47
  %49 = load i32, ptr %48, align 4
  %50 = load ptr, ptr %8, align 8
  %51 = load i32, ptr %10, align 4
  %52 = sext i32 %51 to i64
  %53 = getelementptr inbounds i32, ptr %50, i64 %52
  %54 = load i32, ptr %53, align 4
  %55 = icmp ne i32 %49, %54
  br i1 %55, label %56, label %100

56:                                               ; preds = %44
  call void @llvm.lifetime.start.p0(i64 8, ptr %12) #7
  %57 = load ptr, ptr %9, align 8
  %58 = load ptr, ptr %57, align 8
  store ptr %58, ptr %12, align 8
  %59 = load ptr, ptr %12, align 8
  %60 = getelementptr inbounds nuw %struct.Node, ptr %59, i32 0, i32 0
  %61 = load i32, ptr %60, align 4
  %62 = icmp eq i32 %61, 16
  br i1 %62, label %63, label %83

63:                                               ; preds = %56
  call void @llvm.lifetime.start.p0(i64 8, ptr %13) #7
  %64 = load ptr, ptr %12, align 8
  store ptr %64, ptr %13, align 8
  %65 = load ptr, ptr %5, align 8
  %66 = load ptr, ptr %13, align 8
  %67 = getelementptr inbounds nuw %struct.NamedArgExpr, ptr %66, i32 0, i32 1
  %68 = load ptr, ptr %67, align 8
  %69 = load ptr, ptr %7, align 8
  %70 = load i32, ptr %10, align 4
  %71 = sext i32 %70 to i64
  %72 = getelementptr inbounds i32, ptr %69, i64 %71
  %73 = load i32, ptr %72, align 4
  %74 = load ptr, ptr %8, align 8
  %75 = load i32, ptr %10, align 4
  %76 = sext i32 %75 to i64
  %77 = getelementptr inbounds i32, ptr %74, i64 %76
  %78 = load i32, ptr %77, align 4
  %79 = call ptr @coerce_type(ptr noundef %65, ptr noundef %68, i32 noundef %73, i32 noundef %78, i32 noundef -1, i32 noundef 0, i32 noundef 2, i32 noundef -1)
  store ptr %79, ptr %12, align 8
  %80 = load ptr, ptr %12, align 8
  %81 = load ptr, ptr %13, align 8
  %82 = getelementptr inbounds nuw %struct.NamedArgExpr, ptr %81, i32 0, i32 1
  store ptr %80, ptr %82, align 8
  call void @llvm.lifetime.end.p0(i64 8, ptr %13) #7
  br label %99

83:                                               ; preds = %56
  %84 = load ptr, ptr %5, align 8
  %85 = load ptr, ptr %12, align 8
  %86 = load ptr, ptr %7, align 8
  %87 = load i32, ptr %10, align 4
  %88 = sext i32 %87 to i64
  %89 = getelementptr inbounds i32, ptr %86, i64 %88
  %90 = load i32, ptr %89, align 4
  %91 = load ptr, ptr %8, align 8
  %92 = load i32, ptr %10, align 4
  %93 = sext i32 %92 to i64
  %94 = getelementptr inbounds i32, ptr %91, i64 %93
  %95 = load i32, ptr %94, align 4
  %96 = call ptr @coerce_type(ptr noundef %84, ptr noundef %85, i32 noundef %90, i32 noundef %95, i32 noundef -1, i32 noundef 0, i32 noundef 2, i32 noundef -1)
  store ptr %96, ptr %12, align 8
  %97 = load ptr, ptr %12, align 8
  %98 = load ptr, ptr %9, align 8
  store ptr %97, ptr %98, align 8
  br label %99

99:                                               ; preds = %83, %63
  call void @llvm.lifetime.end.p0(i64 8, ptr %12) #7
  br label %100

100:                                              ; preds = %99, %44
  %101 = load i32, ptr %10, align 4
  %102 = add i32 %101, 1
  store i32 %102, ptr %10, align 4
  br label %103

103:                                              ; preds = %100
  %104 = getelementptr inbounds nuw %struct.ForEachState, ptr %11, i32 0, i32 1
  %105 = load i32, ptr %104, align 8
  %106 = add i32 %105, 1
  store i32 %106, ptr %104, align 8
  br label %18, !llvm.loop !17

107:                                              ; preds = %43
  call void @llvm.lifetime.end.p0(i64 4, ptr %10) #7
  call void @llvm.lifetime.end.p0(i64 8, ptr %9) #7
  ret void
}