; Function Attrs: nounwind uwtable
define dso_local void @make_fn_arguments(ptr noundef %0, ptr noundef readonly captures(address_is_null) %1, ptr noundef readonly captures(none) %2, ptr noundef readonly captures(none) %3) local_unnamed_addr #0 {
  %5 = getelementptr inbounds nuw i8, ptr %1, i64 4
  %.not = icmp eq ptr %1, null
  br i1 %.not, label %._crit_edge, label %.lr.ph

.lr.ph:                                           ; preds = %4
  %6 = getelementptr inbounds nuw i8, ptr %1, i64 16
  %7 = load i32, ptr %5, align 4
  %8 = icmp sgt i32 %7, 0
  br i1 %8, label %.lr.ph41, label %._crit_edge

._crit_edge:                                      ; preds = %25, %.lr.ph, %4
  ret void

.lr.ph41:                                         ; preds = %.lr.ph, %25
  %indvars.iv = phi i64 [ %indvars.iv.next, %25 ], [ 0, %.lr.ph ]
  %9 = load ptr, ptr %6, align 8
  %10 = getelementptr inbounds nuw %union.ListCell, ptr %9, i64 %indvars.iv
  %11 = getelementptr inbounds nuw i32, ptr %2, i64 %indvars.iv
  %12 = load i32, ptr %11, align 4
  %13 = getelementptr inbounds nuw i32, ptr %3, i64 %indvars.iv
  %14 = load i32, ptr %13, align 4
  %.not33 = icmp eq i32 %12, %14
  br i1 %.not33, label %25, label %15

15:                                               ; preds = %.lr.ph41
  %16 = load ptr, ptr %10, align 8
  %17 = load i32, ptr %16, align 4
  %18 = icmp eq i32 %17, 16
  br i1 %18, label %19, label %23

19:                                               ; preds = %15
  %20 = getelementptr inbounds nuw i8, ptr %16, i64 8
  %21 = load ptr, ptr %20, align 8
  %22 = tail call ptr @coerce_type(ptr noundef %0, ptr noundef %21, i32 noundef %12, i32 noundef %14, i32 noundef -1, i32 noundef 0, i32 noundef 2, i32 noundef -1) #8
  store ptr %22, ptr %20, align 8
  br label %25

23:                                               ; preds = %15
  %24 = tail call ptr @coerce_type(ptr noundef %0, ptr noundef nonnull %16, i32 noundef %12, i32 noundef %14, i32 noundef -1, i32 noundef 0, i32 noundef 2, i32 noundef -1) #8
  store ptr %24, ptr %10, align 8
  br label %25

25:                                               ; preds = %19, %23, %.lr.ph41
  %indvars.iv.next = add nuw nsw i64 %indvars.iv, 1
  %26 = load i32, ptr %5, align 4
  %27 = sext i32 %26 to i64
  %28 = icmp slt i64 %indvars.iv.next, %27
  br i1 %28, label %.lr.ph41, label %._crit_edge
}